(dp0
S'per_epoch_ptimes'
p1
(lp2
F37.56172800064087
aF37.300302028656006
aF37.81721210479736
aF37.66051697731018
aF37.598373889923096
aF37.81939196586609
aF37.881946086883545
aF37.952741861343384
aF37.85296392440796
aF37.67261981964111
aF37.50350284576416
aF38.0084068775177
aF38.54819297790527
aF38.527815103530884
aF38.42016792297363
aF38.51454305648804
aF38.53813099861145
aF38.50090408325195
aF38.52034902572632
aF38.35762405395508
asS'D_losses'
p3
(lp4
ctorch._utils
_rebuild_tensor_v2
p5
(ctorch
FloatStorage
p6
((lp7
F0.2363927662372589
atp8
Rp9
I0
(t(tI00
Ntp10
Rp11
ag5
(g6
((lp12
F0.7959112524986267
atp13
Rp14
I0
(t(tI00
Ntp15
Rp16
ag5
(g6
((lp17
F1.279260516166687
atp18
Rp19
I0
(t(tI00
Ntp20
Rp21
ag5
(g6
((lp22
F1.3380367755889893
atp23
Rp24
I0
(t(tI00
Ntp25
Rp26
ag5
(g6
((lp27
F1.350846767425537
atp28
Rp29
I0
(t(tI00
Ntp30
Rp31
ag5
(g6
((lp32
F1.3537702560424805
atp33
Rp34
I0
(t(tI00
Ntp35
Rp36
ag5
(g6
((lp37
F1.3558933734893799
atp38
Rp39
I0
(t(tI00
Ntp40
Rp41
ag5
(g6
((lp42
F1.348715901374817
atp43
Rp44
I0
(t(tI00
Ntp45
Rp46
ag5
(g6
((lp47
F1.3428831100463867
atp48
Rp49
I0
(t(tI00
Ntp50
Rp51
ag5
(g6
((lp52
F1.3466684818267822
atp53
Rp54
I0
(t(tI00
Ntp55
Rp56
ag5
(g6
((lp57
F1.3458551168441772
atp58
Rp59
I0
(t(tI00
Ntp60
Rp61
ag5
(g6
((lp62
F1.3522881269454956
atp63
Rp64
I0
(t(tI00
Ntp65
Rp66
ag5
(g6
((lp67
F1.3574893474578857
atp68
Rp69
I0
(t(tI00
Ntp70
Rp71
ag5
(g6
((lp72
F1.3624144792556763
atp73
Rp74
I0
(t(tI00
Ntp75
Rp76
ag5
(g6
((lp77
F1.3678250312805176
atp78
Rp79
I0
(t(tI00
Ntp80
Rp81
ag5
(g6
((lp82
F1.3629940748214722
atp83
Rp84
I0
(t(tI00
Ntp85
Rp86
ag5
(g6
((lp87
F1.3705118894577026
atp88
Rp89
I0
(t(tI00
Ntp90
Rp91
ag5
(g6
((lp92
F1.368298888206482
atp93
Rp94
I0
(t(tI00
Ntp95
Rp96
ag5
(g6
((lp97
F1.3761974573135376
atp98
Rp99
I0
(t(tI00
Ntp100
Rp101
ag5
(g6
((lp102
F1.3767069578170776
atp103
Rp104
I0
(t(tI00
Ntp105
Rp106
asS'total_ptime'
p107
(lp108
F837.8217580318451
asS'G_losses'
p109
(lp110
g5
(g6
((lp111
F3.287431001663208
atp112
Rp113
I0
(t(tI00
Ntp114
Rp115
ag5
(g6
((lp116
F2.033019781112671
atp117
Rp118
I0
(t(tI00
Ntp119
Rp120
ag5
(g6
((lp121
F0.8365863561630249
atp122
Rp123
I0
(t(tI00
Ntp124
Rp125
ag5
(g6
((lp126
F0.7707633376121521
atp127
Rp128
I0
(t(tI00
Ntp129
Rp130
ag5
(g6
((lp131
F0.7542513608932495
atp132
Rp133
I0
(t(tI00
Ntp134
Rp135
ag5
(g6
((lp136
F0.7513929605484009
atp137
Rp138
I0
(t(tI00
Ntp139
Rp140
ag5
(g6
((lp141
F0.7508009076118469
atp142
Rp143
I0
(t(tI00
Ntp144
Rp145
ag5
(g6
((lp146
F0.7616379857063293
atp147
Rp148
I0
(t(tI00
Ntp149
Rp150
ag5
(g6
((lp151
F0.7664458751678467
atp152
Rp153
I0
(t(tI00
Ntp154
Rp155
ag5
(g6
((lp156
F0.7658025622367859
atp157
Rp158
I0
(t(tI00
Ntp159
Rp160
ag5
(g6
((lp161
F0.7688115835189819
atp162
Rp163
I0
(t(tI00
Ntp164
Rp165
ag5
(g6
((lp166
F0.7574971318244934
atp167
Rp168
I0
(t(tI00
Ntp169
Rp170
ag5
(g6
((lp171
F0.7574493288993835
atp172
Rp173
I0
(t(tI00
Ntp174
Rp175
ag5
(g6
((lp176
F0.746225118637085
atp177
Rp178
I0
(t(tI00
Ntp179
Rp180
ag5
(g6
((lp181
F0.7463999390602112
atp182
Rp183
I0
(t(tI00
Ntp184
Rp185
ag5
(g6
((lp186
F0.7496653199195862
atp187
Rp188
I0
(t(tI00
Ntp189
Rp190
ag5
(g6
((lp191
F0.7406597137451172
atp192
Rp193
I0
(t(tI00
Ntp194
Rp195
ag5
(g6
((lp196
F0.7440584897994995
atp197
Rp198
I0
(t(tI00
Ntp199
Rp200
ag5
(g6
((lp201
F0.7388544082641602
atp202
Rp203
I0
(t(tI00
Ntp204
Rp205
ag5
(g6
((lp206
F0.7345756888389587
atp207
Rp208
I0
(t(tI00
Ntp209
Rp210
as.