(dp0
S'per_epoch_ptimes'
p1
(lp2
F61.90614104270935
aF62.27881407737732
aF62.51738691329956
aF62.21428179740906
aF62.17788219451904
aF61.971866846084595
aF62.025153160095215
aF62.154083013534546
aF62.00952506065369
aF61.9327712059021
aF61.80978488922119
aF61.95877504348755
aF62.14728593826294
aF62.00231599807739
aF61.829620122909546
aF61.96562600135803
aF61.90146517753601
aF61.361916065216064
aF59.06235718727112
aF59.05313587188721
asS'D_losses'
p3
(lp4
ctorch._utils
_rebuild_tensor_v2
p5
(ctorch
FloatStorage
p6
((lp7
F0.5376184582710266
atp8
Rp9
I0
(t(tI00
Ntp10
Rp11
ag5
(g6
((lp12
F1.169897198677063
atp13
Rp14
I0
(t(tI00
Ntp15
Rp16
ag5
(g6
((lp17
F1.216868281364441
atp18
Rp19
I0
(t(tI00
Ntp20
Rp21
ag5
(g6
((lp22
F1.2130582332611084
atp23
Rp24
I0
(t(tI00
Ntp25
Rp26
ag5
(g6
((lp27
F1.2248048782348633
atp28
Rp29
I0
(t(tI00
Ntp30
Rp31
ag5
(g6
((lp32
F1.2186496257781982
atp33
Rp34
I0
(t(tI00
Ntp35
Rp36
ag5
(g6
((lp37
F1.2218055725097656
atp38
Rp39
I0
(t(tI00
Ntp40
Rp41
ag5
(g6
((lp42
F1.2140835523605347
atp43
Rp44
I0
(t(tI00
Ntp45
Rp46
ag5
(g6
((lp47
F1.199195384979248
atp48
Rp49
I0
(t(tI00
Ntp50
Rp51
ag5
(g6
((lp52
F1.155185341835022
atp53
Rp54
I0
(t(tI00
Ntp55
Rp56
ag5
(g6
((lp57
F1.0899025201797485
atp58
Rp59
I0
(t(tI00
Ntp60
Rp61
ag5
(g6
((lp62
F0.9926434755325317
atp63
Rp64
I0
(t(tI00
Ntp65
Rp66
ag5
(g6
((lp67
F0.8936421275138855
atp68
Rp69
I0
(t(tI00
Ntp70
Rp71
ag5
(g6
((lp72
F0.8002060055732727
atp73
Rp74
I0
(t(tI00
Ntp75
Rp76
ag5
(g6
((lp77
F0.7045505046844482
atp78
Rp79
I0
(t(tI00
Ntp80
Rp81
ag5
(g6
((lp82
F0.6348431706428528
atp83
Rp84
I0
(t(tI00
Ntp85
Rp86
ag5
(g6
((lp87
F0.5784186124801636
atp88
Rp89
I0
(t(tI00
Ntp90
Rp91
ag5
(g6
((lp92
F0.5268338918685913
atp93
Rp94
I0
(t(tI00
Ntp95
Rp96
ag5
(g6
((lp97
F0.4957137405872345
atp98
Rp99
I0
(t(tI00
Ntp100
Rp101
ag5
(g6
((lp102
F0.4403352737426758
atp103
Rp104
I0
(t(tI00
Ntp105
Rp106
asS'total_ptime'
p107
(lp108
F1290.9373750686646
asS'G_losses'
p109
(lp110
g5
(g6
((lp111
F2.808180809020996
atp112
Rp113
I0
(t(tI00
Ntp114
Rp115
ag5
(g6
((lp116
F0.9959321022033691
atp117
Rp118
I0
(t(tI00
Ntp119
Rp120
ag5
(g6
((lp121
F0.9176321625709534
atp122
Rp123
I0
(t(tI00
Ntp124
Rp125
ag5
(g6
((lp126
F0.9176766872406006
atp127
Rp128
I0
(t(tI00
Ntp129
Rp130
ag5
(g6
((lp131
F0.9200341105461121
atp132
Rp133
I0
(t(tI00
Ntp134
Rp135
ag5
(g6
((lp136
F0.9179266095161438
atp137
Rp138
I0
(t(tI00
Ntp139
Rp140
ag5
(g6
((lp141
F0.9359639286994934
atp142
Rp143
I0
(t(tI00
Ntp144
Rp145
ag5
(g6
((lp146
F0.9632563591003418
atp147
Rp148
I0
(t(tI00
Ntp149
Rp150
ag5
(g6
((lp151
F0.9979640245437622
atp152
Rp153
I0
(t(tI00
Ntp154
Rp155
ag5
(g6
((lp156
F1.0625540018081665
atp157
Rp158
I0
(t(tI00
Ntp159
Rp160
ag5
(g6
((lp161
F1.1600964069366455
atp162
Rp163
I0
(t(tI00
Ntp164
Rp165
ag5
(g6
((lp166
F1.3203297853469849
atp167
Rp168
I0
(t(tI00
Ntp169
Rp170
ag5
(g6
((lp171
F1.4940906763076782
atp172
Rp173
I0
(t(tI00
Ntp174
Rp175
ag5
(g6
((lp176
F1.6820470094680786
atp177
Rp178
I0
(t(tI00
Ntp179
Rp180
ag5
(g6
((lp181
F1.876137614250183
atp182
Rp183
I0
(t(tI00
Ntp184
Rp185
ag5
(g6
((lp186
F2.034679412841797
atp187
Rp188
I0
(t(tI00
Ntp189
Rp190
ag5
(g6
((lp191
F2.146545171737671
atp192
Rp193
I0
(t(tI00
Ntp194
Rp195
ag5
(g6
((lp196
F2.3043618202209473
atp197
Rp198
I0
(t(tI00
Ntp199
Rp200
ag5
(g6
((lp201
F2.4707491397857666
atp202
Rp203
I0
(t(tI00
Ntp204
Rp205
ag5
(g6
((lp206
F2.5745279788970947
atp207
Rp208
I0
(t(tI00
Ntp209
Rp210
as.