(dp0
S'Train_acc'
p1
(lp2
cnumpy.core.multiarray
scalar
p3
(cnumpy
dtype
p4
(S'f4'
p5
I0
I1
tp6
Rp7
(I3
S'<'
p8
NNNI-1
I-1
I0
tp9
bS'H\x83\x90>'
p10
tp11
Rp12
ag3
(g7
S'\\\xbe\x90>'
p13
tp14
Rp15
ag3
(g7
S"b'\x92>"
p16
tp17
Rp18
ag3
(g7
S'O\xec\x91>'
p19
tp20
Rp21
ag3
(g7
S'\xb1\x13\x97>'
p22
tp23
Rp24
ag3
(g7
S'\xe6[\x95>'
p25
tp26
Rp27
ag3
(g7
S'\xf9\x96\x93>'
p28
tp29
Rp30
ag3
(g7
S'\xc5N\x97>'
p31
tp32
Rp33
ag3
(g7
S'.\xdf\x9b>'
p34
tp35
Rp36
ag3
(g7
S'\xab\xaa\xa0>'
p37
tp38
Rp39
ag3
(g7
S'\xf9\x96\xa4>'
p40
tp41
Rp42
ag3
(g7
S'\x97o\xa7>'
p43
tp44
Rp45
ag3
(g7
S'\xcb\xb7\xb1>'
p46
tp47
Rp48
ag3
(g7
S'\x07i\xbb>'
p49
tp50
Rp51
ag3
(g7
S'\xf9\x96\xc3>'
p52
tp53
Rp54
ag3
(g7
S'UU\xcc>'
p55
tp56
Rp57
ag3
(g7
S'\xb8|\xd9>'
p58
tp59
Rp60
ag3
(g7
S'\xa4A\xe3>'
p61
tp62
Rp63
ag3
(g7
S'i\x90\xef>'
p64
tp65
Rp66
ag3
(g7
S'\xdf\xf2\xfb>'
p67
tp68
Rp69
asS'Train_loss'
p70
(lp71
g3
(g7
S'^\xf1\xb0?'
p72
tp73
Rp74
ag3
(g7
S'z\xaf\xb0?'
p75
tp76
Rp77
ag3
(g7
S'!\x96\xb0?'
p78
tp79
Rp80
ag3
(g7
S'\xe6\xf9\xaf?'
p81
tp82
Rp83
ag3
(g7
S'P:\xaf?'
p84
tp85
Rp86
ag3
(g7
S'\xb1\xda\xae?'
p87
tp88
Rp89
ag3
(g7
S'>y\xae?'
p90
tp91
Rp92
ag3
(g7
S'@\xff\xad?'
p93
tp94
Rp95
ag3
(g7
S'\xa7V\xad?'
p96
tp97
Rp98
ag3
(g7
S'5\x85\xac?'
p99
tp100
Rp101
ag3
(g7
S'\xf5\x96\xab?'
p102
tp103
Rp104
ag3
(g7
S'\xe2\x87\xaa?'
p105
tp106
Rp107
ag3
(g7
S'\xcd\xc5\xa8?'
p108
tp109
Rp110
ag3
(g7
S'E\xa7\xa6?'
p111
tp112
Rp113
ag3
(g7
S'\xcf9\xa4?'
p114
tp115
Rp116
ag3
(g7
S'\xcd\xd5\xa0?'
p117
tp118
Rp119
ag3
(g7
S'\xc8\x1d\x9d?'
p120
tp121
Rp122
ag3
(g7
S'\xc2\xbf\x98?'
p123
tp124
Rp125
ag3
(g7
S'\xc8\xc9\x93?'
p126
tp127
Rp128
ag3
(g7
S'\x13\xeb\x8e?'
p129
tp130
Rp131
asS'Val_acc'
p132
(lp133
g3
(g7
S'\xb2Yc>'
p134
tp135
Rp136
ag3
(g7
S'\xb1Yc>'
p137
tp138
Rp139
ag3
(g7
S'\xad3u>'
p140
tp141
Rp142
ag3
(g7
S'\xf4sc>'
p143
tp144
Rp145
ag3
(g7
S'|\xa8c>'
p146
tp147
Rp148
ag3
(g7
S'\x8a\x11d>'
p149
tp150
Rp151
ag3
(g7
S'\xfafe>'
p152
tp153
Rp154
ag3
(g7
S'1\x80\x82>'
p155
tp156
Rp157
ag3
(g7
S'M\xb7y>'
p158
tp159
Rp160
ag3
(g7
S'\xe9\xd7v>'
p161
tp162
Rp163
ag3
(g7
S'\xee\x1d\x85>'
p164
tp165
Rp166
ag3
(g7
S'I_\x81>'
p167
tp168
Rp169
ag3
(g7
S'\x07\xb5\x86>'
p170
tp171
Rp172
ag3
(g7
S'\xd7[\x7f>'
p173
tp174
Rp175
ag3
(g7
S'l\xdc\x86>'
p176
tp177
Rp178
ag3
(g7
S'\xc7\x1d\x83>'
p179
tp180
Rp181
ag3
(g7
S'\x83\x03\x83>'
p182
tp183
Rp184
ag3
(g7
S'\xa4X\x80>'
p185
tp186
Rp187
ag3
(g7
S'5\xbb\x81>'
p188
tp189
Rp190
ag3
(g7
S'\xf2\xa0\x81>'
p191
tp192
Rp193
asS'Val_loss'
p194
(lp195
g3
(g7
S'A2\xb3?'
p196
tp197
Rp198
ag3
(g7
S'\xe5\xf6\xb2?'
p199
tp200
Rp201
ag3
(g7
S'\x1e\x82\xb3?'
p202
tp203
Rp204
ag3
(g7
S'K\xda\xb2?'
p205
tp206
Rp207
ag3
(g7
S'I\x9b\xb3?'
p208
tp209
Rp210
ag3
(g7
S':\x1d\xb3?'
p211
tp212
Rp213
ag3
(g7
S'\xbd\xff\xb3?'
p214
tp215
Rp216
ag3
(g7
S'&\x10\xb3?'
p217
tp218
Rp219
ag3
(g7
S'\xd6\xda\xb2?'
p220
tp221
Rp222
ag3
(g7
S'I\x00\xb4?'
p223
tp224
Rp225
ag3
(g7
S'$?\xb4?'
p226
tp227
Rp228
ag3
(g7
S'\x95u\xb6?'
p229
tp230
Rp231
ag3
(g7
S'\xc0m\xb5?'
p232
tp233
Rp234
ag3
(g7
S'\xd4B\xb8?'
p235
tp236
Rp237
ag3
(g7
S'\x05/\xbc?'
p238
tp239
Rp240
ag3
(g7
S' \xd1\xba?'
p241
tp242
Rp243
ag3
(g7
S':L\xc2?'
p244
tp245
Rp246
ag3
(g7
S'\x04L\xc8?'
p247
tp248
Rp249
ag3
(g7
S'\xe9\xe0\xca?'
p250
tp251
Rp252
ag3
(g7
S'\xa1\xf6\xd8?'
p253
tp254
Rp255
as.