(dp0
S'Train_acc'
p1
(lp2
sS'Train_loss'
p3
(lp4
cnumpy.core.multiarray
scalar
p5
(cnumpy
dtype
p6
(S'f4'
p7
I0
I1
tp8
Rp9
(I3
S'<'
p10
NNNI-1
I-1
I0
tp11
bS'?\xa1\xad?'
p12
tp13
Rp14
ag5
(g9
S')\xab\xaa?'
p15
tp16
Rp17
ag5
(g9
S'1\xf6\xa6?'
p18
tp19
Rp20
ag5
(g9
S'\xf1t\xa2?'
p21
tp22
Rp23
ag5
(g9
S'V\xd0\x9c?'
p24
tp25
Rp26
ag5
(g9
S'\xfb\xb1\x95?'
p27
tp28
Rp29
ag5
(g9
S'\xc3\xe1\x8d?'
p30
tp31
Rp32
ag5
(g9
S'\x03\xef\x85?'
p33
tp34
Rp35
ag5
(g9
S'\xa0Y}?'
p36
tp37
Rp38
ag5
(g9
S'\x1d\x1do?'
p39
tp40
Rp41
ag5
(g9
S'\xfe\x9ba?'
p42
tp43
Rp44
ag5
(g9
S'p\xb6T?'
p45
tp46
Rp47
ag5
(g9
S'K\xddJ?'
p48
tp49
Rp50
ag5
(g9
S'%\x90@?'
p51
tp52
Rp53
ag5
(g9
S'\xb7\xfe5?'
p54
tp55
Rp56
ag5
(g9
S'\xb3\xda,?'
p57
tp58
Rp59
ag5
(g9
S'^/%?'
p60
tp61
Rp62
ag5
(g9
S'\xf0\xfe\x1d?'
p63
tp64
Rp65
ag5
(g9
S'P\xaf\x16?'
p66
tp67
Rp68
ag5
(g9
S'\x85\xb1\x0f?'
p69
tp70
Rp71
asS'Val_acc'
p72
(lp73
sS'Val_loss'
p74
(lp75
g5
(g9
S'D\xd5\xb0?'
p76
tp77
Rp78
ag5
(g9
S'\xb3\xc5\xb0?'
p79
tp80
Rp81
ag5
(g9
S'\x9c\xbd\xaf?'
p82
tp83
Rp84
ag5
(g9
S'\xde.\xb3?'
p85
tp86
Rp87
ag5
(g9
S'\xe4s\xb6?'
p88
tp89
Rp90
ag5
(g9
S'u\xf6\xb8?'
p91
tp92
Rp93
ag5
(g9
S'Ix\xbd?'
p94
tp95
Rp96
ag5
(g9
S'\x90\x85\xc0?'
p97
tp98
Rp99
ag5
(g9
S'\xe2J\xc8?'
p100
tp101
Rp102
ag5
(g9
S'\xc3E\xce?'
p103
tp104
Rp105
ag5
(g9
S'`\xb9\xd4?'
p106
tp107
Rp108
ag5
(g9
S'\x86\x85\xdd?'
p109
tp110
Rp111
ag5
(g9
S'\xd51\xe2?'
p112
tp113
Rp114
ag5
(g9
S'\x8b\xcd\xe9?'
p115
tp116
Rp117
ag5
(g9
S'e\x18\xf1?'
p118
tp119
Rp120
ag5
(g9
S' \r\xfa?'
p121
tp122
Rp123
ag5
(g9
S'\x96N\xfd?'
p124
tp125
Rp126
ag5
(g9
S'P\xe2\x04@'
p127
tp128
Rp129
ag5
(g9
S'\x85\xda\x07@'
p130
tp131
Rp132
ag5
(g9
S'\xefH\x0b@'
p133
tp134
Rp135
as.